target datalayout = "e-m:e-p270:32:32-p271:32:32-p272:64:64-i64:64-i128:128-f80:128-n8:16:32:64-S128"
target triple = "x86_64-pc-linux-gnu"

%"class.zxing::qrcode::QRCodeReader" = type <{ %"class.zxing::Reader.base", [4 x i8], %"class.zxing::qrcode::Decoder", i32, i32, %"class.zxing::DecodeHints", [7 x i8], %"struct.zxing::qrcode::QBAR_QRCODE_DETECT_INFO", i32, i32, i32, i32, i32, i32, i32, i32, i32, i32, i32, [4 x i8] }>
%"class.zxing::Reader.base" = type { %"class.zxing::Counted.base" }
%"class.zxing::Counted.base" = type <{ ptr, i32 }>
%"class.zxing::qrcode::Decoder" = type <{ i32, float, %"class.zxing::ReedSolomonDecoder", i32, [4 x i8] }>
%"class.zxing::ReedSolomonDecoder" = type { %"class.zxing::Ref" }
%"class.zxing::Ref" = type { ptr }
%"class.zxing::DecodeHints" = type { i8 }
%"struct.zxing::qrcode::QBAR_QRCODE_DETECT_INFO" = type { i32, i32, float, float, i32, float, %"class.std::vector" }
%"class.std::vector" = type { %"struct.std::_Vector_base" }
%"struct.std::_Vector_base" = type { %"struct.std::_Vector_base<zxing::Ref<zxing::ResultPoint>, std::allocator<zxing::Ref<zxing::ResultPoint>>>::_Vector_impl" }
%"struct.std::_Vector_base<zxing::Ref<zxing::ResultPoint>, std::allocator<zxing::Ref<zxing::ResultPoint>>>::_Vector_impl" = type { %"struct.std::_Vector_base<zxing::Ref<zxing::ResultPoint>, std::allocator<zxing::Ref<zxing::ResultPoint>>>::_Vector_impl_data" }
%"struct.std::_Vector_base<zxing::Ref<zxing::ResultPoint>, std::allocator<zxing::Ref<zxing::ResultPoint>>>::_Vector_impl_data" = type { ptr, ptr, ptr }

; Function Attrs: mustprogress nounwind uwtable
define hidden void @_ZN5zxing6qrcode12QRCodeReader27setPossibleAPCountByVersionEj(ptr noundef nonnull align 8 dereferenceable(148) %0, i32 noundef %1) #4 align 2 {
  %3 = alloca ptr, align 8
  %4 = alloca i32, align 4
  store ptr %0, ptr %3, align 8, !tbaa !3
  store i32 %1, ptr %4, align 4, !tbaa !75
  %5 = load ptr, ptr %3, align 8
  %6 = load i32, ptr %4, align 4, !tbaa !75
  %7 = icmp ult i32 %6, 2
  br i1 %7, label %8, label %10

8:                                                ; preds = %2
  %9 = getelementptr inbounds nuw %"class.zxing::qrcode::QRCodeReader", ptr %5, i32 0, i32 12
  store i32 0, ptr %9, align 8, !tbaa !35
  br label %42

10:                                               ; preds = %2
  %11 = load i32, ptr %4, align 4, !tbaa !75
  %12 = icmp ult i32 %11, 7
  br i1 %12, label %13, label %15

13:                                               ; preds = %10
  %14 = getelementptr inbounds nuw %"class.zxing::qrcode::QRCodeReader", ptr %5, i32 0, i32 12
  store i32 1, ptr %14, align 8, !tbaa !35
  br label %41

15:                                               ; preds = %10
  %16 = load i32, ptr %4, align 4, !tbaa !75
  %17 = icmp ult i32 %16, 14
  br i1 %17, label %18, label %20

18:                                               ; preds = %15
  %19 = getelementptr inbounds nuw %"class.zxing::qrcode::QRCodeReader", ptr %5, i32 0, i32 12
  store i32 2, ptr %19, align 8, !tbaa !35
  br label %40

20:                                               ; preds = %15
  %21 = load i32, ptr %4, align 4, !tbaa !75
  %22 = icmp ult i32 %21, 21
  br i1 %22, label %23, label %25

23:                                               ; preds = %20
  %24 = getelementptr inbounds nuw %"class.zxing::qrcode::QRCodeReader", ptr %5, i32 0, i32 12
  store i32 3, ptr %24, align 8, !tbaa !35
  br label %39

25:                                               ; preds = %20
  %26 = load i32, ptr %4, align 4, !tbaa !75
  %27 = icmp ult i32 %26, 28
  br i1 %27, label %28, label %30

28:                                               ; preds = %25
  %29 = getelementptr inbounds nuw %"class.zxing::qrcode::QRCodeReader", ptr %5, i32 0, i32 12
  store i32 4, ptr %29, align 8, !tbaa !35
  br label %38

30:                                               ; preds = %25
  %31 = load i32, ptr %4, align 4, !tbaa !75
  %32 = icmp ult i32 %31, 35
  br i1 %32, label %33, label %35

33:                                               ; preds = %30
  %34 = getelementptr inbounds nuw %"class.zxing::qrcode::QRCodeReader", ptr %5, i32 0, i32 12
  store i32 5, ptr %34, align 8, !tbaa !35
  br label %37

35:                                               ; preds = %30
  %36 = getelementptr inbounds nuw %"class.zxing::qrcode::QRCodeReader", ptr %5, i32 0, i32 12
  store i32 6, ptr %36, align 8, !tbaa !35
  br label %37

37:                                               ; preds = %35, %33
  br label %38

38:                                               ; preds = %37, %28
  br label %39

39:                                               ; preds = %38, %23
  br label %40

40:                                               ; preds = %39, %18
  br label %41

41:                                               ; preds = %40, %13
  br label %42

42:                                               ; preds = %41, %8
  ret void
}

; Function Attrs: mustprogress nounwind uwtable
define hidden noundef i32 @_ZN5zxing6qrcode12QRCodeReader17getPossibleAPTypeEv(ptr noundef nonnull align 8 dereferenceable(148) %0) unnamed_addr #4 align 2 {
  %2 = alloca ptr, align 8
  %3 = alloca i32, align 4
  store ptr %0, ptr %2, align 8, !tbaa !3
  %4 = load ptr, ptr %2, align 8
  call void @llvm.lifetime.start.p0(i64 4, ptr %3) #2
  %5 = getelementptr inbounds nuw %"class.zxing::qrcode::QRCodeReader", ptr %4, i32 0, i32 3
  %6 = load i32, ptr %5, align 8, !tbaa !30
  %7 = sub nsw i32 %6, 21
  %8 = sdiv i32 %7, 4
  %9 = add nsw i32 %8, 1
  store i32 %9, ptr %3, align 4, !tbaa !75
  %10 = load i32, ptr %3, align 4, !tbaa !75
  call void @_ZN5zxing6qrcode12QRCodeReader27setPossibleAPCountByVersionEj(ptr noundef nonnull align 8 dereferenceable(148) %4, i32 noundef %10)
  %11 = getelementptr inbounds nuw %"class.zxing::qrcode::QRCodeReader", ptr %4, i32 0, i32 12
  %12 = load i32, ptr %11, align 8, !tbaa !35
  call void @llvm.lifetime.end.p0(i64 4, ptr %3) #2
  ret i32 %12
}