; Function Attrs: mustprogress nofree norecurse nosync nounwind willreturn memory(argmem: readwrite) uwtable
define hidden noundef range(i32 0, 7) i32 @_ZN5zxing6qrcode12QRCodeReader17getPossibleAPTypeEv(ptr noundef nonnull align 8 captures(none) dereferenceable(148) initializes((120, 124)) %0) unnamed_addr #11 align 2 {
  %2 = getelementptr inbounds nuw i8, ptr %0, i64 40
  %3 = load i32, ptr %2, align 8, !tbaa !31
  %4 = add nsw i32 %3, -21
  %5 = sdiv i32 %4, 4
  %6 = add nsw i32 %5, 1
  %7 = icmp ult i32 %6, 2
  br i1 %7, label %8, label %10

8:                                                ; preds = %1
  %9 = getelementptr inbounds nuw i8, ptr %0, i64 120
  store i32 0, ptr %9, align 8, !tbaa !97
  br label %_ZN5zxing6qrcode12QRCodeReader27setPossibleAPCountByVersionEj.exit

10:                                               ; preds = %1
  %11 = icmp ult i32 %6, 7
  br i1 %11, label %12, label %14

12:                                               ; preds = %10
  %13 = getelementptr inbounds nuw i8, ptr %0, i64 120
  store i32 1, ptr %13, align 8, !tbaa !97
  br label %_ZN5zxing6qrcode12QRCodeReader27setPossibleAPCountByVersionEj.exit

14:                                               ; preds = %10
  %15 = icmp ult i32 %6, 14
  br i1 %15, label %16, label %18

16:                                               ; preds = %14
  %17 = getelementptr inbounds nuw i8, ptr %0, i64 120
  store i32 2, ptr %17, align 8, !tbaa !97
  br label %_ZN5zxing6qrcode12QRCodeReader27setPossibleAPCountByVersionEj.exit

18:                                               ; preds = %14
  %19 = icmp ult i32 %6, 21
  br i1 %19, label %20, label %22

20:                                               ; preds = %18
  %21 = getelementptr inbounds nuw i8, ptr %0, i64 120
  store i32 3, ptr %21, align 8, !tbaa !97
  br label %_ZN5zxing6qrcode12QRCodeReader27setPossibleAPCountByVersionEj.exit

22:                                               ; preds = %18
  %23 = icmp ult i32 %6, 28
  br i1 %23, label %24, label %26

24:                                               ; preds = %22
  %25 = getelementptr inbounds nuw i8, ptr %0, i64 120
  store i32 4, ptr %25, align 8, !tbaa !97
  br label %_ZN5zxing6qrcode12QRCodeReader27setPossibleAPCountByVersionEj.exit

26:                                               ; preds = %22
  %27 = icmp ult i32 %6, 35
  %28 = getelementptr inbounds nuw i8, ptr %0, i64 120
  br i1 %27, label %29, label %30

29:                                               ; preds = %26
  store i32 5, ptr %28, align 8, !tbaa !97
  br label %_ZN5zxing6qrcode12QRCodeReader27setPossibleAPCountByVersionEj.exit

30:                                               ; preds = %26
  store i32 6, ptr %28, align 8, !tbaa !97
  br label %_ZN5zxing6qrcode12QRCodeReader27setPossibleAPCountByVersionEj.exit

_ZN5zxing6qrcode12QRCodeReader27setPossibleAPCountByVersionEj.exit: ; preds = %8, %12, %16, %20, %24, %29, %30
  %31 = phi i32 [ 0, %8 ], [ 1, %12 ], [ 2, %16 ], [ 3, %20 ], [ 4, %24 ], [ 5, %29 ], [ 6, %30 ]
  ret i32 %31
}